target datalayout = "e-m:e-p270:32:32-p271:32:32-p272:64:64-i64:64-i128:128-f80:128-n8:16:32:64-S128"
target triple = "x86_64-pc-linux-gnu"

%struct.Float4X4 = type { %union.anon }
%union.anon = type { %struct.anon }
%struct.anon = type { float, float, float, float, float, float, float, float, float, float, float, float, float, float, float, float }
%struct.SDL_Renderer = type { ptr, ptr, ptr, ptr, ptr, ptr, ptr, ptr, ptr, ptr, ptr, ptr, ptr, ptr, ptr, ptr, ptr, ptr, ptr, ptr, ptr, ptr, ptr, ptr, ptr, ptr, ptr, ptr, ptr, ptr, i32, i8, ptr, i8, i8, i8, i64, i64, ptr, %struct.SDL_RenderViewState, %struct.SDL_FPoint, i32, i32, ptr, ptr, ptr, i32, float, float, float, float, %struct.SDL_FColor, i32, i32, i32, ptr, ptr, ptr, ptr, i32, %struct.SDL_FColor, float, %struct.SDL_Rect, %struct.SDL_Rect, i8, i8, i8, i8, ptr, i64, i64, i8, ptr, ptr, i32, ptr, i8, ptr, ptr }
%struct.SDL_RenderViewState = type { i32, i32, %struct.SDL_Rect, %struct.SDL_Rect, %struct.SDL_Rect, %struct.SDL_Rect, i8, %struct.SDL_FPoint, i32, i32, i32, %struct.SDL_FRect, %struct.SDL_FRect, %struct.SDL_FPoint, %struct.SDL_FPoint, %struct.SDL_FPoint }
%struct.SDL_FRect = type { float, float, float, float }
%struct.SDL_FPoint = type { float, float }
%struct.SDL_FColor = type { float, float, float, float }
%struct.SDL_Rect = type { i32, i32, i32, i32 }
%struct.VULKAN_RenderData = type { ptr, ptr, i8, ptr, i8, ptr, %struct.VkPhysicalDeviceProperties, %struct.VkPhysicalDeviceMemoryProperties, %struct.VkPhysicalDeviceFeatures, ptr, ptr, ptr, i8, i32, i32, ptr, ptr, ptr, i32, ptr, ptr, %struct.VkSurfaceCapabilitiesKHR, ptr, i8, i32, i32, ptr, [2 x ptr], ptr, [3 x ptr], [3 x ptr], ptr, ptr, [256 x %struct.VULKAN_Buffer], %struct.VULKAN_VertexShaderConstants, ptr, ptr, ptr, ptr, i32, i32, [8 x ptr], ptr, ptr, i32, i32, i32, ptr, ptr, i8, i8, i8, i32, i32, i32, %struct.VkSurfaceFormatKHR, %struct.VkExtent2D, i32, i32, ptr, ptr, ptr, ptr, ptr, ptr, i32, ptr, ptr, i32, i32, ptr, i32, i32, ptr, i8, i8, %struct.SDL_Rect, %struct.SDL_Rect, i32, i8, %struct.Float4X4, %struct.VkComponentMapping, i32, i8 }
%struct.VkPhysicalDeviceProperties = type { i32, i32, i32, i32, i32, [256 x i8], [16 x i8], %struct.VkPhysicalDeviceLimits, %struct.VkPhysicalDeviceSparseProperties }
%struct.VkPhysicalDeviceLimits = type { i32, i32, i32, i32, i32, i32, i32, i32, i32, i32, i32, i64, i64, i32, i32, i32, i32, i32, i32, i32, i32, i32, i32, i32, i32, i32, i32, i32, i32, i32, i32, i32, i32, i32, i32, i32, i32, i32, i32, i32, i32, i32, i32, i32, i32, i32, i32, i32, i32, i32, i32, i32, [3 x i32], i32, [3 x i32], i32, i32, i32, i32, i32, float, float, i32, [2 x i32], [2 x float], i32, i64, i64, i64, i64, i32, i32, i32, i32, float, float, i32, i32, i32, i32, i32, i32, i32, i32, i32, i32, i32, i32, i32, i32, i32, i32, float, i32, i32, i32, i32, [2 x float], [2 x float], float, float, i32, i32, i64, i64, i64 }
%struct.VkPhysicalDeviceSparseProperties = type { i32, i32, i32, i32, i32 }
%struct.VkPhysicalDeviceMemoryProperties = type { i32, [32 x %struct.VkMemoryType], i32, [16 x %struct.VkMemoryHeap] }
%struct.VkMemoryType = type { i32, i32 }
%struct.VkMemoryHeap = type { i64, i32 }
%struct.VkPhysicalDeviceFeatures = type { i32, i32, i32, i32, i32, i32, i32, i32, i32, i32, i32, i32, i32, i32, i32, i32, i32, i32, i32, i32, i32, i32, i32, i32, i32, i32, i32, i32, i32, i32, i32, i32, i32, i32, i32, i32, i32, i32, i32, i32, i32, i32, i32, i32, i32, i32, i32, i32, i32, i32, i32, i32, i32, i32, i32 }
%struct.VkSurfaceCapabilitiesKHR = type { i32, i32, %struct.VkExtent2D, %struct.VkExtent2D, %struct.VkExtent2D, i32, i32, i32, i32, i32 }
%struct.VULKAN_Buffer = type { ptr, ptr, i64, ptr }
%struct.VULKAN_VertexShaderConstants = type { %struct.Float4X4, %struct.Float4X4 }
%struct.VkSurfaceFormatKHR = type { i32, i32 }
%struct.VkExtent2D = type { i32, i32 }
%struct.VkComponentMapping = type { i32, i32, i32, i32 }

@vkDeviceWaitIdle = internal global ptr null, align 8

; Function Attrs: nounwind uwtable
define internal void @VULKAN_DestroyRenderer(ptr noundef %0) #0 {
  %2 = alloca ptr, align 8
  %3 = alloca ptr, align 8
  store ptr %0, ptr %2, align 8
  call void @llvm.lifetime.start.p0(i64 8, ptr %3) #6
  %4 = load ptr, ptr %2, align 8
  %5 = getelementptr inbounds nuw %struct.SDL_Renderer, ptr %4, i32 0, i32 77
  %6 = load ptr, ptr %5, align 8
  store ptr %6, ptr %3, align 8
  %7 = load ptr, ptr %3, align 8
  %8 = icmp ne ptr %7, null
  br i1 %8, label %9, label %23

9:                                                ; preds = %1
  %10 = load ptr, ptr %3, align 8
  %11 = getelementptr inbounds nuw %struct.VULKAN_RenderData, ptr %10, i32 0, i32 11
  %12 = load ptr, ptr %11, align 8
  %13 = icmp ne ptr %12, null
  br i1 %13, label %14, label %21

14:                                               ; preds = %9
  %15 = load ptr, ptr @vkDeviceWaitIdle, align 8
  %16 = load ptr, ptr %3, align 8
  %17 = getelementptr inbounds nuw %struct.VULKAN_RenderData, ptr %16, i32 0, i32 11
  %18 = load ptr, ptr %17, align 8
  %19 = call i32 %15(ptr noundef %18)
  %20 = load ptr, ptr %2, align 8
  call void @VULKAN_DestroyAll(ptr noundef %20)
  br label %21

21:                                               ; preds = %14, %9
  %22 = load ptr, ptr %3, align 8
  call void @SDL_free_REAL(ptr noundef %22)
  br label %23

23:                                               ; preds = %21, %1
  call void @llvm.lifetime.end.p0(i64 8, ptr %3) #6
  ret void
}