; Function Attrs: nounwind uwtable
define internal void @VULKAN_DestroyRenderer(ptr noundef readonly captures(address_is_null) %0) #0 {
  %2 = getelementptr inbounds nuw i8, ptr %0, i64 696
  %3 = load ptr, ptr %2, align 8
  %.not = icmp eq ptr %3, null
  br i1 %.not, label %11, label %4

4:                                                ; preds = %1
  %5 = getelementptr inbounds nuw i8, ptr %3, i64 1632
  %6 = load ptr, ptr %5, align 8
  %.not7 = icmp eq ptr %6, null
  br i1 %.not7, label %10, label %7

7:                                                ; preds = %4
  %8 = load ptr, ptr @vkDeviceWaitIdle, align 8
  %9 = tail call i32 %8(ptr noundef nonnull %6) #8
  tail call fastcc void @VULKAN_DestroyAll(ptr noundef nonnull %0)
  br label %10

10:                                               ; preds = %7, %4
  tail call void @SDL_free_REAL(ptr noundef nonnull %3) #8
  br label %11

11:                                               ; preds = %10, %1
  ret void
}